target datalayout = "e-m:e-p270:32:32-p271:32:32-p272:64:64-i64:64-i128:128-f80:128-n8:16:32:64-S128"
target triple = "x86_64-pc-linux-gnu"

%"union.absl::lts_20240722::internal_any_invocable::TypeErasedState" = type { %struct.anon }
%struct.anon = type { ptr, i64 }
%"class.grpc_core::(anonymous namespace)::HttpConnectHandshaker" = type { %"class.grpc_core::Handshaker", %"class.absl::lts_20240722::Mutex", ptr, %"class.absl::lts_20240722::AnyInvocable.75", %"class.grpc_core::SliceBuffer", %struct.grpc_closure, %struct.grpc_closure, %struct.grpc_http_parser, %struct.grpc_http_response }
%"class.grpc_core::Handshaker" = type { %"class.grpc_core::RefCounted.74" }
%"class.grpc_core::RefCounted.74" = type { %"class.grpc_core::PolymorphicRefCount", %"class.grpc_core::RefCount" }
%"class.grpc_core::PolymorphicRefCount" = type { ptr }
%"class.grpc_core::RefCount" = type { %"struct.std::atomic" }
%"struct.std::atomic" = type { %"struct.std::__atomic_base" }
%"struct.std::__atomic_base" = type { i64 }
%"class.absl::lts_20240722::Mutex" = type { %"struct.std::atomic" }
%"class.absl::lts_20240722::AnyInvocable.75" = type { %"class.absl::lts_20240722::internal_any_invocable::Impl.76" }
%"class.absl::lts_20240722::internal_any_invocable::Impl.76" = type { %"class.absl::lts_20240722::internal_any_invocable::CoreImpl.77" }
%"class.absl::lts_20240722::internal_any_invocable::CoreImpl.77" = type { %"union.absl::lts_20240722::internal_any_invocable::TypeErasedState", ptr, ptr }
%"class.grpc_core::SliceBuffer" = type { %struct.grpc_slice_buffer }
%struct.grpc_slice_buffer = type { ptr, ptr, i64, i64, i64, [6 x %struct.grpc_slice] }
%struct.grpc_slice = type { ptr, %"union.grpc_slice::grpc_slice_data" }
%"union.grpc_slice::grpc_slice_data" = type { %"struct.grpc_slice::grpc_slice_data::grpc_slice_refcounted", [8 x i8] }
%"struct.grpc_slice::grpc_slice_data::grpc_slice_refcounted" = type { i64, ptr }
%struct.grpc_closure = type { %union.anon.78, ptr, ptr, %union.anon.79 }
%union.anon.78 = type { ptr }
%union.anon.79 = type { i64 }
%struct.grpc_http_parser = type { i32, i32, %union.anon.80, i64, i64, [4096 x i8], i64, i64 }
%union.anon.80 = type { ptr }
%struct.grpc_http_response = type { i32, i64, ptr, i64, i32, i64, ptr }

; Function Attrs: alwaysinline mustprogress nounwind uwtable
define linkonce_odr void @_ZN4absl12lts_202407225Mutex4DtorEv(ptr noundef nonnull align 8 dereferenceable(8) %0) #9 comdat align 2 {
  %2 = alloca ptr, align 8
  store ptr %0, ptr %2, align 8, !tbaa !108
  ret void
}

; Function Attrs: mustprogress nounwind uwtable
define linkonce_odr void @_ZN9grpc_core19PolymorphicRefCountD2Ev(ptr noundef nonnull align 8 dereferenceable(8) %0) unnamed_addr #5 comdat align 2 {
  %2 = alloca ptr, align 8
  store ptr %0, ptr %2, align 8, !tbaa !150
  ret void
}

; Function Attrs: alwaysinline mustprogress nounwind uwtable
define linkonce_odr void @_ZN4absl12lts_202407225MutexD2Ev(ptr noundef nonnull align 8 dereferenceable(8) %0) unnamed_addr #9 comdat align 2 personality ptr @__gxx_personality_v0 {
  %2 = alloca ptr, align 8
  store ptr %0, ptr %2, align 8, !tbaa !108
  %3 = load ptr, ptr %2, align 8
  invoke void @_ZN4absl12lts_202407225Mutex4DtorEv(ptr noundef nonnull align 8 dereferenceable(8) %3)
          to label %4 unwind label %5

4:                                                ; preds = %1
  ret void

5:                                                ; preds = %1
  %6 = landingpad { ptr, i32 }
          catch ptr null
  %7 = extractvalue { ptr, i32 } %6, 0
  call void @__clang_call_terminate(ptr %7) #28
  unreachable
}

; Function Attrs: mustprogress nounwind uwtable
define linkonce_odr void @_ZN4absl12lts_2024072222internal_any_invocable8CoreImplILb0EvJNS0_6StatusEEED2Ev(ptr noundef nonnull align 16 dereferenceable(32) %0) unnamed_addr #5 comdat align 2 {
  %2 = alloca ptr, align 8
  store ptr %0, ptr %2, align 8, !tbaa !123
  %3 = load ptr, ptr %2, align 8
  %4 = getelementptr inbounds nuw %"class.absl::lts_20240722::internal_any_invocable::CoreImpl.77", ptr %3, i32 0, i32 1
  %5 = load ptr, ptr %4, align 16, !tbaa !125
  %6 = getelementptr inbounds nuw %"class.absl::lts_20240722::internal_any_invocable::CoreImpl.77", ptr %3, i32 0, i32 0
  %7 = getelementptr inbounds nuw %"class.absl::lts_20240722::internal_any_invocable::CoreImpl.77", ptr %3, i32 0, i32 0
  call void %5(i1 noundef zeroext true, ptr noundef %6, ptr noundef %7) #3
  ret void
}

; Function Attrs: mustprogress nounwind uwtable
define linkonce_odr void @_ZN9grpc_core11SliceBufferD2Ev(ptr noundef nonnull align 8 dereferenceable(232) %0) unnamed_addr #5 comdat align 2 personality ptr @__gxx_personality_v0 {
  %2 = alloca ptr, align 8
  store ptr %0, ptr %2, align 8, !tbaa !112
  %3 = load ptr, ptr %2, align 8
  %4 = getelementptr inbounds nuw %"class.grpc_core::SliceBuffer", ptr %3, i32 0, i32 0
  invoke void @grpc_slice_buffer_destroy(ptr noundef %4)
          to label %5 unwind label %6

5:                                                ; preds = %1
  ret void

6:                                                ; preds = %1
  %7 = landingpad { ptr, i32 }
          catch ptr null
  %8 = extractvalue { ptr, i32 } %7, 0
  call void @__clang_call_terminate(ptr %8) #28
  unreachable
}

; Function Attrs: mustprogress nounwind uwtable
define internal void @_ZN9grpc_core12_GLOBAL__N_121HttpConnectHandshakerD2Ev(ptr noundef nonnull align 16 dereferenceable(4560) %0) unnamed_addr #5 align 2 personality ptr @__gxx_personality_v0 {
  %2 = alloca ptr, align 8
  store ptr %0, ptr %2, align 8, !tbaa !82
  %3 = load ptr, ptr %2, align 8
  store ptr getelementptr inbounds inrange(-16, 40) ({ [7 x ptr] }, ptr @_ZTVN9grpc_core12_GLOBAL__N_121HttpConnectHandshakerE, i32 0, i32 0, i32 2), ptr %3, align 16, !tbaa !30
  %4 = getelementptr inbounds nuw %"class.grpc_core::(anonymous namespace)::HttpConnectHandshaker", ptr %3, i32 0, i32 7
  invoke void @_Z24grpc_http_parser_destroyP16grpc_http_parser(ptr noundef %4)
          to label %5 unwind label %11

5:                                                ; preds = %1
  %6 = getelementptr inbounds nuw %"class.grpc_core::(anonymous namespace)::HttpConnectHandshaker", ptr %3, i32 0, i32 8
  invoke void @_Z26grpc_http_response_destroyP18grpc_http_response(ptr noundef %6)
          to label %7 unwind label %11

7:                                                ; preds = %5
  %8 = getelementptr inbounds nuw %"class.grpc_core::(anonymous namespace)::HttpConnectHandshaker", ptr %3, i32 0, i32 4
  call void @_ZN9grpc_core11SliceBufferD2Ev(ptr noundef nonnull align 8 dereferenceable(232) %8) #3
  %9 = getelementptr inbounds nuw %"class.grpc_core::(anonymous namespace)::HttpConnectHandshaker", ptr %3, i32 0, i32 3
  call void @_ZN4absl12lts_2024072222internal_any_invocable8CoreImplILb0EvJNS0_6StatusEEED2Ev(ptr noundef nonnull align 16 dereferenceable(32) %9) #3
  %10 = getelementptr inbounds nuw %"class.grpc_core::(anonymous namespace)::HttpConnectHandshaker", ptr %3, i32 0, i32 1
  call void @_ZN4absl12lts_202407225MutexD2Ev(ptr noundef nonnull align 8 dereferenceable(8) %10) #3
  call void @_ZN9grpc_core19PolymorphicRefCountD2Ev(ptr noundef nonnull align 8 dereferenceable(16) %3) #3
  ret void

11:                                               ; preds = %5, %1
  %12 = landingpad { ptr, i32 }
          catch ptr null
  %13 = extractvalue { ptr, i32 } %12, 0
  call void @__clang_call_terminate(ptr %13) #28
  unreachable
}