; Function Attrs: mustprogress nounwind uwtable
define internal void @_ZN9grpc_core12_GLOBAL__N_121HttpConnectHandshakerD2Ev(ptr noundef nonnull align 16 dereferenceable(4560) initializes((0, 8)) %0) unnamed_addr #16 align 2 personality ptr @__gxx_personality_v0 {
  store ptr getelementptr inbounds nuw inrange(-16, 40) (i8, ptr @_ZTVN9grpc_core12_GLOBAL__N_121HttpConnectHandshakerE, i64 16), ptr %0, align 16, !tbaa !6
  %2 = getelementptr inbounds nuw i8, ptr %0, i64 360
  invoke void @_Z24grpc_http_parser_destroyP16grpc_http_parser(ptr noundef nonnull %2)
          to label %3 unwind label %13

3:                                                ; preds = %1
  %4 = getelementptr inbounds nuw i8, ptr %0, i64 4504
  invoke void @_Z26grpc_http_response_destroyP18grpc_http_response(ptr noundef nonnull %4)
          to label %5 unwind label %13

5:                                                ; preds = %3
  %6 = getelementptr inbounds nuw i8, ptr %0, i64 64
  invoke void @grpc_slice_buffer_destroy(ptr noundef nonnull align 8 dereferenceable(232) %6)
          to label %_ZN9grpc_core11SliceBufferD2Ev.exit unwind label %7

7:                                                ; preds = %5
  %8 = landingpad { ptr, i32 }
          catch ptr null
  %9 = extractvalue { ptr, i32 } %8, 0
  tail call void @__clang_call_terminate(ptr %9) #33
  unreachable

_ZN9grpc_core11SliceBufferD2Ev.exit:              ; preds = %5
  %10 = getelementptr inbounds nuw i8, ptr %0, i64 32
  %11 = getelementptr inbounds nuw i8, ptr %0, i64 48
  %12 = load ptr, ptr %11, align 16, !tbaa !30
  tail call void %12(i1 noundef zeroext true, ptr noundef nonnull align 16 dereferenceable(32) %10, ptr noundef nonnull align 16 dereferenceable(32) %10) #30
  ret void

13:                                               ; preds = %3, %1
  %14 = landingpad { ptr, i32 }
          catch ptr null
  %15 = extractvalue { ptr, i32 } %14, 0
  tail call void @__clang_call_terminate(ptr %15) #33
  unreachable
}